; Function Attrs: nounwind uwtable
define dso_local i32 @lzma_auto_decoder(ptr noundef %0, i64 noundef %1, i32 noundef %2) local_unnamed_addr #0 {
  %4 = tail call i32 @lzma_strm_init(ptr noundef %0) #5
  %.not.not = icmp eq i32 %4, 0
  br i1 %.not.not, label %5, label %34

5:                                                ; preds = %3
  %6 = getelementptr inbounds nuw i8, ptr %0, i64 56
  %7 = load ptr, ptr %6, align 8, !tbaa !4
  %8 = getelementptr inbounds nuw i8, ptr %0, i64 48
  %9 = load ptr, ptr %8, align 8, !tbaa !13
  %10 = getelementptr inbounds nuw i8, ptr %7, i64 16
  %11 = load i64, ptr %10, align 8, !tbaa !14
  %.not.i = icmp eq i64 %11, ptrtoint (ptr @auto_decoder_init to i64)
  br i1 %.not.i, label %13, label %12

12:                                               ; preds = %5
  tail call void @lzma_next_end(ptr noundef nonnull %7, ptr noundef %9) #5
  br label %13

13:                                               ; preds = %12, %5
  store i64 ptrtoint (ptr @auto_decoder_init to i64), ptr %10, align 8, !tbaa !14
  %.not25.i = icmp ult i32 %2, 64
  br i1 %.not25.i, label %14, label %25

14:                                               ; preds = %13
  %15 = load ptr, ptr %7, align 8, !tbaa !16
  %16 = icmp eq ptr %15, null
  br i1 %16, label %17, label %26

17:                                               ; preds = %14
  %18 = tail call ptr @lzma_alloc(i64 noundef 96, ptr noundef %9) #5
  %19 = icmp eq ptr %18, null
  br i1 %19, label %25, label %20

20:                                               ; preds = %17
  store ptr %18, ptr %7, align 8, !tbaa !16
  %21 = getelementptr inbounds nuw i8, ptr %7, i64 24
  store ptr @auto_decode, ptr %21, align 8, !tbaa !17
  %22 = getelementptr inbounds nuw i8, ptr %7, i64 32
  store ptr @auto_decoder_end, ptr %22, align 8, !tbaa !18
  %23 = getelementptr inbounds nuw i8, ptr %7, i64 48
  store ptr @auto_decoder_get_check, ptr %23, align 8, !tbaa !19
  %24 = getelementptr inbounds nuw i8, ptr %7, i64 56
  store ptr @auto_decoder_memconfig, ptr %24, align 8, !tbaa !20
  store ptr null, ptr %18, align 8, !tbaa !21
  %.sroa.2.0..sroa_idx.i = getelementptr inbounds nuw i8, ptr %18, i64 8
  store i64 -1, ptr %.sroa.2.0..sroa_idx.i, align 8, !tbaa !22
  %.sroa.3.0..sroa_idx.i = getelementptr inbounds nuw i8, ptr %18, i64 16
  tail call void @llvm.memset.p0.i64(ptr noundef nonnull align 8 dereferenceable(64) %.sroa.3.0..sroa_idx.i, i8 0, i64 64, i1 false)
  br label %26

25:                                               ; preds = %17, %13
  %.0.i.ph = phi i32 [ 5, %17 ], [ 8, %13 ]
  tail call void @lzma_end(ptr noundef nonnull %0) #5
  br label %34

26:                                               ; preds = %20, %14
  %.022.i = phi ptr [ %18, %20 ], [ %15, %14 ]
  %27 = tail call i64 @llvm.umax.i64(i64 %1, i64 1)
  %28 = getelementptr inbounds nuw i8, ptr %.022.i, i64 80
  store i64 %27, ptr %28, align 8, !tbaa !23
  %29 = getelementptr inbounds nuw i8, ptr %.022.i, i64 88
  store i32 %2, ptr %29, align 8, !tbaa !25
  %30 = getelementptr inbounds nuw i8, ptr %.022.i, i64 92
  store i32 0, ptr %30, align 4, !tbaa !26
  %31 = load ptr, ptr %6, align 8, !tbaa !4
  %32 = getelementptr inbounds nuw i8, ptr %31, i64 96
  store i8 1, ptr %32, align 8, !tbaa !27
  %33 = getelementptr inbounds nuw i8, ptr %31, i64 99
  store i8 1, ptr %33, align 1, !tbaa !27
  br label %34

34:                                               ; preds = %25, %3, %26
  %.1 = phi i32 [ %4, %3 ], [ %.0.i.ph, %25 ], [ 0, %26 ]
  ret i32 %.1
}